target datalayout = "e-m:e-p270:32:32-p271:32:32-p272:64:64-i64:64-i128:128-f80:128-n8:16:32:64-S128"
target triple = "x86_64-pc-linux-gnu"

%"struct.Luau::Position" = type { i32, i32 }
%"struct.Luau::FindFullAncestry" = type <{ %"class.Luau::AstVisitor", %"class.std::vector", %"struct.Luau::Position", %"struct.Luau::Position", i8, [7 x i8] }>
%"class.Luau::AstVisitor" = type { ptr }
%"class.std::vector" = type { %"struct.std::_Vector_base" }
%"struct.std::_Vector_base" = type { %"struct.std::_Vector_base<Luau::AstNode *, std::allocator<Luau::AstNode *>>::_Vector_impl" }
%"struct.std::_Vector_base<Luau::AstNode *, std::allocator<Luau::AstNode *>>::_Vector_impl" = type { %"struct.std::_Vector_base<Luau::AstNode *, std::allocator<Luau::AstNode *>>::_Vector_impl_data" }
%"struct.std::_Vector_base<Luau::AstNode *, std::allocator<Luau::AstNode *>>::_Vector_impl_data" = type { ptr, ptr, ptr }

; Function Attrs: mustprogress nounwind uwtable
define linkonce_odr dso_local void @_ZNSt15__new_allocatorIPN4Luau7AstNodeEEC2Ev(ptr noundef nonnull align 1 dereferenceable(1) %0) unnamed_addr #2 comdat align 2 {
  %2 = alloca ptr, align 8
  store ptr %0, ptr %2, align 8, !tbaa !357
  ret void
}

; Function Attrs: mustprogress nounwind uwtable
define linkonce_odr dso_local void @_ZNSt12_Vector_baseIPN4Luau7AstNodeESaIS2_EE17_Vector_impl_dataC2Ev(ptr noundef nonnull align 8 dereferenceable(24) %0) unnamed_addr #2 comdat align 2 {
  %2 = alloca ptr, align 8
  store ptr %0, ptr %2, align 8, !tbaa !355
  %3 = load ptr, ptr %2, align 8
  %4 = getelementptr inbounds nuw %"struct.std::_Vector_base<Luau::AstNode *, std::allocator<Luau::AstNode *>>::_Vector_impl_data", ptr %3, i32 0, i32 0
  store ptr null, ptr %4, align 8, !tbaa !98
  %5 = getelementptr inbounds nuw %"struct.std::_Vector_base<Luau::AstNode *, std::allocator<Luau::AstNode *>>::_Vector_impl_data", ptr %3, i32 0, i32 1
  store ptr null, ptr %5, align 8, !tbaa !47
  %6 = getelementptr inbounds nuw %"struct.std::_Vector_base<Luau::AstNode *, std::allocator<Luau::AstNode *>>::_Vector_impl_data", ptr %3, i32 0, i32 2
  store ptr null, ptr %6, align 8, !tbaa !48
  ret void
}

; Function Attrs: mustprogress nounwind uwtable
define linkonce_odr dso_local void @_ZNSaIPN4Luau7AstNodeEEC2Ev(ptr noundef nonnull align 1 dereferenceable(1) %0) unnamed_addr #2 comdat align 2 {
  %2 = alloca ptr, align 8
  store ptr %0, ptr %2, align 8, !tbaa !353
  %3 = load ptr, ptr %2, align 8
  call void @_ZNSt15__new_allocatorIPN4Luau7AstNodeEEC2Ev(ptr noundef nonnull align 1 dereferenceable(1) %3) #18
  ret void
}

; Function Attrs: mustprogress nounwind uwtable
define linkonce_odr dso_local void @_ZNSt12_Vector_baseIPN4Luau7AstNodeESaIS2_EE12_Vector_implC2Ev(ptr noundef nonnull align 8 dereferenceable(24) %0) unnamed_addr #2 comdat align 2 {
  %2 = alloca ptr, align 8
  store ptr %0, ptr %2, align 8, !tbaa !351
  %3 = load ptr, ptr %2, align 8
  call void @_ZNSaIPN4Luau7AstNodeEEC2Ev(ptr noundef nonnull align 1 dereferenceable(1) %3) #18
  call void @_ZNSt12_Vector_baseIPN4Luau7AstNodeESaIS2_EE17_Vector_impl_dataC2Ev(ptr noundef nonnull align 8 dereferenceable(24) %3) #18
  ret void
}

; Function Attrs: mustprogress nounwind uwtable
define linkonce_odr dso_local void @_ZNSt12_Vector_baseIPN4Luau7AstNodeESaIS2_EEC2Ev(ptr noundef nonnull align 8 dereferenceable(24) %0) unnamed_addr #2 comdat align 2 {
  %2 = alloca ptr, align 8
  store ptr %0, ptr %2, align 8, !tbaa !349
  %3 = load ptr, ptr %2, align 8
  %4 = getelementptr inbounds nuw %"struct.std::_Vector_base", ptr %3, i32 0, i32 0
  call void @_ZNSt12_Vector_baseIPN4Luau7AstNodeESaIS2_EE12_Vector_implC2Ev(ptr noundef nonnull align 8 dereferenceable(24) %4) #18
  ret void
}

; Function Attrs: mustprogress nounwind uwtable
define linkonce_odr dso_local void @_ZNSt6vectorIPN4Luau7AstNodeESaIS2_EEC2Ev(ptr noundef nonnull align 8 dereferenceable(24) %0) unnamed_addr #2 comdat align 2 {
  %2 = alloca ptr, align 8
  store ptr %0, ptr %2, align 8, !tbaa !30
  %3 = load ptr, ptr %2, align 8
  call void @_ZNSt12_Vector_baseIPN4Luau7AstNodeESaIS2_EEC2Ev(ptr noundef nonnull align 8 dereferenceable(24) %3) #18
  ret void
}

; Function Attrs: inlinehint mustprogress nounwind uwtable
define linkonce_odr dso_local void @_ZN4Luau10AstVisitorC2Ev(ptr noundef nonnull align 8 dereferenceable(8) %0) unnamed_addr #3 comdat align 2 {
  %2 = alloca ptr, align 8
  store ptr %0, ptr %2, align 8, !tbaa !28
  %3 = load ptr, ptr %2, align 8
  store ptr getelementptr inbounds inrange(-16, 496) ({ [64 x ptr] }, ptr @_ZTVN4Luau10AstVisitorE, i32 0, i32 0, i32 2), ptr %3, align 8, !tbaa !13
  ret void
}

; Function Attrs: mustprogress nounwind uwtable
define dso_local void @_ZN4Luau16FindFullAncestryC2ENS_8PositionES1_b(ptr noundef nonnull align 8 dereferenceable(56) %0, i64 %1, i64 %2, i1 noundef zeroext %3) unnamed_addr #2 align 2 {
  %5 = alloca %"struct.Luau::Position", align 4
  %6 = alloca %"struct.Luau::Position", align 4
  %7 = alloca ptr, align 8
  %8 = alloca i8, align 1
  store i64 %1, ptr %5, align 4
  store i64 %2, ptr %6, align 4
  store ptr %0, ptr %7, align 8, !tbaa !8
  %9 = zext i1 %3 to i8
  store i8 %9, ptr %8, align 1, !tbaa !11
  %10 = load ptr, ptr %7, align 8
  call void @_ZN4Luau10AstVisitorC2Ev(ptr noundef nonnull align 8 dereferenceable(8) %10) #18
  store ptr getelementptr inbounds inrange(-16, 496) ({ [64 x ptr] }, ptr @_ZTVN4Luau16FindFullAncestryE, i32 0, i32 0, i32 2), ptr %10, align 8, !tbaa !13
  %11 = getelementptr inbounds nuw %"struct.Luau::FindFullAncestry", ptr %10, i32 0, i32 1
  call void @_ZNSt6vectorIPN4Luau7AstNodeESaIS2_EEC2Ev(ptr noundef nonnull align 8 dereferenceable(24) %11) #18
  %12 = getelementptr inbounds nuw %"struct.Luau::FindFullAncestry", ptr %10, i32 0, i32 2
  call void @llvm.memcpy.p0.p0.i64(ptr align 8 %12, ptr align 4 %5, i64 8, i1 false), !tbaa.struct !15
  %13 = getelementptr inbounds nuw %"struct.Luau::FindFullAncestry", ptr %10, i32 0, i32 3
  call void @llvm.memcpy.p0.p0.i64(ptr align 8 %13, ptr align 4 %6, i64 8, i1 false), !tbaa.struct !15
  %14 = getelementptr inbounds nuw %"struct.Luau::FindFullAncestry", ptr %10, i32 0, i32 4
  %15 = load i8, ptr %8, align 1, !tbaa !11, !range !16, !noundef !17
  %16 = trunc i8 %15 to i1
  %17 = zext i1 %16 to i8
  store i8 %17, ptr %14, align 8, !tbaa !18
  ret void
}