; Function Attrs: mustprogress nofree norecurse nosync nounwind willreturn memory(argmem: write) uwtable
define dso_local void @_ZN4Luau16FindFullAncestryC2ENS_8PositionES1_b(ptr noundef nonnull writeonly align 8 captures(none) dereferenceable(56) initializes((0, 49)) %0, i64 %1, i64 %2, i1 noundef zeroext %3) unnamed_addr #2 align 2 {
  %5 = zext i1 %3 to i8
  store ptr getelementptr inbounds nuw inrange(-16, 496) (i8, ptr @_ZTVN4Luau16FindFullAncestryE, i64 16), ptr %0, align 8, !tbaa !8
  %6 = getelementptr inbounds nuw i8, ptr %0, i64 8
  tail call void @llvm.memset.p0.i64(ptr noundef nonnull align 8 dereferenceable(24) %6, i8 0, i64 24, i1 false)
  %7 = getelementptr inbounds nuw i8, ptr %0, i64 32
  store i64 %1, ptr %7, align 8
  %8 = getelementptr inbounds nuw i8, ptr %0, i64 40
  store i64 %2, ptr %8, align 8
  %9 = getelementptr inbounds nuw i8, ptr %0, i64 48
  store i8 %5, ptr %9, align 8, !tbaa !10
  ret void
}